target datalayout = "e-m:e-p270:32:32-p271:32:32-p272:64:64-i64:64-i128:128-f80:128-n8:16:32:64-S128"
target triple = "x86_64-pc-linux-gnu"

%struct.AVRational = type { i32, i32 }
%struct.SideDataMap = type { i32, i32 }
%struct.AVCodecContext = type { ptr, i32, i32, ptr, i32, i32, ptr, ptr, ptr, i64, i32, i32, ptr, i32, %struct.AVRational, %struct.AVRational, %struct.AVRational, i32, i32, i32, i32, i32, %struct.AVRational, i32, i32, i32, i32, i32, i32, i32, i32, i32, i32, i32, ptr, ptr, i32, float, float, float, float, float, float, float, float, float, i32, i32, i32, i32, i32, i32, i32, i32, i32, i32, i32, i32, ptr, ptr, ptr, i32, i32, i32, i32, i32, i32, i32, i32, i32, i32, %struct.AVChannelLayout, i32, i32, i32, i32, i32, i32, i32, i32, ptr, i32, i32, i32, float, float, i32, i32, i32, i32, i32, ptr, i64, i64, float, float, i32, i32, ptr, ptr, i32, i32, i32, i32, i32, ptr, ptr, ptr, ptr, i32, i32, [8 x i64], i32, i32, i32, i32, i32, i32, i32, ptr, ptr, i32, i32, i32, i32, i32, i32, i32, i32, i32, i32, ptr, ptr, i32, i32, ptr, ptr, ptr, ptr, i32, i32, i64, i32, i32, i64, ptr, i64, ptr, i32, ptr, i32 }
%struct.AVChannelLayout = type { i32, i32, %union.anon, ptr }
%union.anon = type { i64 }
%struct.AVPacket = type { ptr, i64, i64, ptr, i32, i32, i32, ptr, i32, i64, i64, ptr, ptr, %struct.AVRational }
%struct.AVFrame = type { [8 x ptr], [8 x i32], ptr, i32, i32, i32, i32, i32, %struct.AVRational, i64, i64, %struct.AVRational, i32, ptr, i32, i32, [8 x ptr], ptr, i32, ptr, i32, i32, i32, i32, i32, i32, i32, i64, ptr, i32, ptr, ptr, i64, i64, i64, i64, ptr, %struct.AVChannelLayout, i64 }

@ff_sd_global_map = external constant [0 x %struct.SideDataMap], align 4

; Function Attrs: nounwind uwtable
define internal i32 @add_metadata_from_side_data(ptr noundef %0, ptr noundef %1) #0 {
  %3 = alloca ptr, align 8
  %4 = alloca ptr, align 8
  %5 = alloca i64, align 8
  %6 = alloca ptr, align 8
  %7 = alloca ptr, align 8
  store ptr %0, ptr %3, align 8, !tbaa !9
  store ptr %1, ptr %4, align 8, !tbaa !51
  call void @llvm.lifetime.start.p0(i64 8, ptr %5) #11
  call void @llvm.lifetime.start.p0(i64 8, ptr %6) #11
  call void @llvm.lifetime.start.p0(i64 8, ptr %7) #11
  %8 = load ptr, ptr %4, align 8, !tbaa !51
  %9 = getelementptr inbounds nuw %struct.AVFrame, ptr %8, i32 0, i32 28
  store ptr %9, ptr %7, align 8, !tbaa !233
  %10 = load ptr, ptr %3, align 8, !tbaa !9
  %11 = call ptr @av_packet_get_side_data(ptr noundef %10, i32 noundef 13, ptr noundef %5)
  store ptr %11, ptr %6, align 8, !tbaa !143
  %12 = load ptr, ptr %6, align 8, !tbaa !143
  %13 = load i64, ptr %5, align 8, !tbaa !69
  %14 = load ptr, ptr %7, align 8, !tbaa !233
  %15 = call i32 @av_packet_unpack_dictionary(ptr noundef %12, i64 noundef %13, ptr noundef %14)
  call void @llvm.lifetime.end.p0(i64 8, ptr %7) #11
  call void @llvm.lifetime.end.p0(i64 8, ptr %6) #11
  call void @llvm.lifetime.end.p0(i64 8, ptr %5) #11
  ret i32 %15
}

; Function Attrs: nounwind uwtable
define i32 @ff_decode_frame_props_from_pkt(ptr noundef %0, ptr noundef %1, ptr noundef %2) #0 {
  %4 = alloca i32, align 4
  %5 = alloca ptr, align 8
  %6 = alloca ptr, align 8
  %7 = alloca ptr, align 8
  %8 = alloca i32, align 4
  %9 = alloca i32, align 4
  %10 = alloca i32, align 4
  store ptr %0, ptr %5, align 8, !tbaa !4
  store ptr %1, ptr %6, align 8, !tbaa !51
  store ptr %2, ptr %7, align 8, !tbaa !9
  call void @llvm.lifetime.start.p0(i64 4, ptr %8) #11
  store i32 0, ptr %8, align 4, !tbaa !41
  %11 = load ptr, ptr %7, align 8, !tbaa !9
  %12 = getelementptr inbounds nuw %struct.AVPacket, ptr %11, i32 0, i32 1
  %13 = load i64, ptr %12, align 8, !tbaa !121
  %14 = load ptr, ptr %6, align 8, !tbaa !51
  %15 = getelementptr inbounds nuw %struct.AVFrame, ptr %14, i32 0, i32 9
  store i64 %13, ptr %15, align 8, !tbaa !89
  %16 = load ptr, ptr %7, align 8, !tbaa !9
  %17 = getelementptr inbounds nuw %struct.AVPacket, ptr %16, i32 0, i32 9
  %18 = load i64, ptr %17, align 8, !tbaa !128
  %19 = load ptr, ptr %6, align 8, !tbaa !51
  %20 = getelementptr inbounds nuw %struct.AVFrame, ptr %19, i32 0, i32 38
  store i64 %18, ptr %20, align 8, !tbaa !91
  %21 = load ptr, ptr %6, align 8, !tbaa !51
  %22 = load ptr, ptr %7, align 8, !tbaa !9
  %23 = getelementptr inbounds nuw %struct.AVPacket, ptr %22, i32 0, i32 7
  %24 = load ptr, ptr %23, align 8, !tbaa !220
  %25 = load ptr, ptr %7, align 8, !tbaa !9
  %26 = getelementptr inbounds nuw %struct.AVPacket, ptr %25, i32 0, i32 8
  %27 = load i32, ptr %26, align 8, !tbaa !45
  %28 = call i32 @side_data_map(ptr noundef %21, ptr noundef %24, i32 noundef %27, ptr noundef @ff_sd_global_map)
  store i32 %28, ptr %8, align 4, !tbaa !41
  %29 = load i32, ptr %8, align 4, !tbaa !41
  %30 = icmp slt i32 %29, 0
  br i1 %30, label %31, label %33

31:                                               ; preds = %3
  %32 = load i32, ptr %8, align 4, !tbaa !41
  store i32 %32, ptr %4, align 4
  store i32 1, ptr %9, align 4
  br label %87

33:                                               ; preds = %3
  %34 = load ptr, ptr %6, align 8, !tbaa !51
  %35 = load ptr, ptr %7, align 8, !tbaa !9
  %36 = getelementptr inbounds nuw %struct.AVPacket, ptr %35, i32 0, i32 7
  %37 = load ptr, ptr %36, align 8, !tbaa !220
  %38 = load ptr, ptr %7, align 8, !tbaa !9
  %39 = getelementptr inbounds nuw %struct.AVPacket, ptr %38, i32 0, i32 8
  %40 = load i32, ptr %39, align 8, !tbaa !45
  %41 = call i32 @side_data_map(ptr noundef %34, ptr noundef %37, i32 noundef %40, ptr noundef @ff_decode_frame_props_from_pkt.sd)
  store i32 %41, ptr %8, align 4, !tbaa !41
  %42 = load i32, ptr %8, align 4, !tbaa !41
  %43 = icmp slt i32 %42, 0
  br i1 %43, label %44, label %46

44:                                               ; preds = %33
  %45 = load i32, ptr %8, align 4, !tbaa !41
  store i32 %45, ptr %4, align 4
  store i32 1, ptr %9, align 4
  br label %87

46:                                               ; preds = %33
  %47 = load ptr, ptr %7, align 8, !tbaa !9
  %48 = load ptr, ptr %6, align 8, !tbaa !51
  %49 = call i32 @add_metadata_from_side_data(ptr noundef %47, ptr noundef %48)
  %50 = load ptr, ptr %7, align 8, !tbaa !9
  %51 = getelementptr inbounds nuw %struct.AVPacket, ptr %50, i32 0, i32 6
  %52 = load i32, ptr %51, align 8, !tbaa !221
  %53 = and i32 %52, 4
  %54 = icmp ne i32 %53, 0
  br i1 %54, label %55, label %60

55:                                               ; preds = %46
  %56 = load ptr, ptr %6, align 8, !tbaa !51
  %57 = getelementptr inbounds nuw %struct.AVFrame, ptr %56, i32 0, i32 21
  %58 = load i32, ptr %57, align 4, !tbaa !62
  %59 = or i32 %58, 4
  store i32 %59, ptr %57, align 4, !tbaa !62
  br label %60

60:                                               ; preds = %55, %46
  %61 = load ptr, ptr %5, align 8, !tbaa !4
  %62 = getelementptr inbounds nuw %struct.AVCodecContext, ptr %61, i32 0, i32 10
  %63 = load i32, ptr %62, align 8, !tbaa !117
  %64 = and i32 %63, 128
  %65 = icmp ne i32 %64, 0
  br i1 %65, label %66, label %86

66:                                               ; preds = %60
  call void @llvm.lifetime.start.p0(i64 4, ptr %10) #11
  %67 = load ptr, ptr %6, align 8, !tbaa !51
  %68 = getelementptr inbounds nuw %struct.AVFrame, ptr %67, i32 0, i32 31
  %69 = load ptr, ptr %7, align 8, !tbaa !9
  %70 = getelementptr inbounds nuw %struct.AVPacket, ptr %69, i32 0, i32 12
  %71 = load ptr, ptr %70, align 8, !tbaa !222
  %72 = call i32 @av_buffer_replace(ptr noundef %68, ptr noundef %71)
  store i32 %72, ptr %10, align 4, !tbaa !41
  %73 = load i32, ptr %10, align 4, !tbaa !41
  %74 = icmp slt i32 %73, 0
  br i1 %74, label %75, label %77

75:                                               ; preds = %66
  %76 = load i32, ptr %10, align 4, !tbaa !41
  store i32 %76, ptr %4, align 4
  store i32 1, ptr %9, align 4
  br label %83

77:                                               ; preds = %66
  %78 = load ptr, ptr %7, align 8, !tbaa !9
  %79 = getelementptr inbounds nuw %struct.AVPacket, ptr %78, i32 0, i32 11
  %80 = load ptr, ptr %79, align 8, !tbaa !223
  %81 = load ptr, ptr %6, align 8, !tbaa !51
  %82 = getelementptr inbounds nuw %struct.AVFrame, ptr %81, i32 0, i32 13
  store ptr %80, ptr %82, align 8, !tbaa !224
  store i32 0, ptr %9, align 4
  br label %83

83:                                               ; preds = %77, %75
  call void @llvm.lifetime.end.p0(i64 4, ptr %10) #11
  %84 = load i32, ptr %9, align 4
  switch i32 %84, label %87 [
    i32 0, label %85
  ]

85:                                               ; preds = %83
  br label %86

86:                                               ; preds = %85, %60
  store i32 0, ptr %4, align 4
  store i32 1, ptr %9, align 4
  br label %87

87:                                               ; preds = %86, %83, %44, %31
  call void @llvm.lifetime.end.p0(i64 4, ptr %8) #11
  %88 = load i32, ptr %4, align 4
  ret i32 %88
}