; Function Attrs: nounwind uwtable
define range(i32 -2147483648, 1) i32 @ff_decode_frame_props_from_pkt(ptr noundef readonly captures(none) %0, ptr noundef initializes((136, 144), (408, 416)) %1, ptr noundef %2) local_unnamed_addr #0 {
  %4 = alloca i64, align 8
  %5 = getelementptr inbounds nuw i8, ptr %2, i64 8
  %6 = load i64, ptr %5, align 8, !tbaa !76
  %7 = getelementptr inbounds nuw i8, ptr %1, i64 136
  store i64 %6, ptr %7, align 8, !tbaa !89
  %8 = getelementptr inbounds nuw i8, ptr %2, i64 64
  %9 = load i64, ptr %8, align 8, !tbaa !120
  %10 = getelementptr inbounds nuw i8, ptr %1, i64 408
  store i64 %9, ptr %10, align 8, !tbaa !90
  %11 = getelementptr inbounds nuw i8, ptr %2, i64 48
  %12 = load ptr, ptr %11, align 8, !tbaa !191
  %13 = getelementptr inbounds nuw i8, ptr %2, i64 56
  %14 = load i32, ptr %13, align 8, !tbaa !52
  %15 = tail call fastcc i32 @side_data_map(ptr noundef %1, ptr noundef %12, i32 noundef %14, ptr noundef nonnull @ff_sd_global_map)
  %16 = icmp slt i32 %15, 0
  br i1 %16, label %.critedge, label %17

17:                                               ; preds = %3
  %18 = load ptr, ptr %11, align 8, !tbaa !191
  %19 = load i32, ptr %13, align 8, !tbaa !52
  %20 = tail call fastcc i32 @side_data_map(ptr noundef nonnull %1, ptr noundef %18, i32 noundef %19, ptr noundef nonnull @ff_decode_frame_props_from_pkt.sd)
  %21 = icmp slt i32 %20, 0
  br i1 %21, label %.critedge, label %22

22:                                               ; preds = %17
  call void @llvm.lifetime.start.p0(i64 8, ptr nonnull %4) #10
  %23 = getelementptr inbounds nuw i8, ptr %1, i64 312
  %24 = call ptr @av_packet_get_side_data(ptr noundef nonnull %2, i32 noundef 13, ptr noundef nonnull %4) #10
  %25 = load i64, ptr %4, align 8, !tbaa !43
  %26 = call i32 @av_packet_unpack_dictionary(ptr noundef %24, i64 noundef %25, ptr noundef nonnull %23) #10
  call void @llvm.lifetime.end.p0(i64 8, ptr nonnull %4) #10
  %27 = getelementptr inbounds nuw i8, ptr %2, i64 40
  %28 = load i32, ptr %27, align 8, !tbaa !192
  %29 = and i32 %28, 4
  %.not = icmp eq i32 %29, 0
  br i1 %.not, label %34, label %30

30:                                               ; preds = %22
  %31 = getelementptr inbounds nuw i8, ptr %1, i64 276
  %32 = load i32, ptr %31, align 4, !tbaa !64
  %33 = or i32 %32, 4
  store i32 %33, ptr %31, align 4, !tbaa !64
  br label %34

34:                                               ; preds = %30, %22
  %35 = getelementptr inbounds nuw i8, ptr %0, i64 64
  %36 = load i32, ptr %35, align 8, !tbaa !109
  %37 = and i32 %36, 128
  %.not29 = icmp eq i32 %37, 0
  br i1 %.not29, label %.critedge, label %38

38:                                               ; preds = %34
  %39 = getelementptr inbounds nuw i8, ptr %1, i64 336
  %40 = getelementptr inbounds nuw i8, ptr %2, i64 88
  %41 = load ptr, ptr %40, align 8, !tbaa !193
  %42 = call i32 @av_buffer_replace(ptr noundef nonnull %39, ptr noundef %41) #10
  %43 = icmp sgt i32 %42, -1
  br i1 %43, label %44, label %.critedge

44:                                               ; preds = %38
  %45 = getelementptr inbounds nuw i8, ptr %2, i64 80
  %46 = load ptr, ptr %45, align 8, !tbaa !194
  %47 = getelementptr inbounds nuw i8, ptr %1, i64 168
  store ptr %46, ptr %47, align 8, !tbaa !195
  br label %.critedge

.critedge:                                        ; preds = %34, %44, %38, %17, %3
  %.0 = phi i32 [ %15, %3 ], [ %20, %17 ], [ %42, %38 ], [ 0, %44 ], [ 0, %34 ]
  ret i32 %.0
}